target datalayout = "e-m:e-p270:32:32-p271:32:32-p272:64:64-i64:64-i128:128-f80:128-n8:16:32:64-S128"
target triple = "x86_64-pc-linux-gnu"

%struct.Vec_Int_t_ = type { i32, i32, ptr }

@.str.5 = private unnamed_addr constant [2 x i8] c"\0A\00", align 1
@.str.6 = private unnamed_addr constant [46 x i8] c"The %d-variable set family contains %d sets:\0A\00", align 1
@s_Truths6 = internal global [6 x i64] [i64 -6148914691236517206, i64 -3689348814741910324, i64 -1085102592571150096, i64 -71777214294589696, i64 -281470681808896, i64 -4294967296], align 16

; Function Attrs: inlinehint nounwind uwtable
define internal i32 @Vec_IntEntry(ptr noundef %0, i32 noundef %1) #2 {
  %3 = alloca ptr, align 8
  %4 = alloca i32, align 4
  store ptr %0, ptr %3, align 8, !tbaa !36
  store i32 %1, ptr %4, align 4, !tbaa !8
  %5 = load ptr, ptr %3, align 8, !tbaa !36
  %6 = getelementptr inbounds nuw %struct.Vec_Int_t_, ptr %5, i32 0, i32 2
  %7 = load ptr, ptr %6, align 8, !tbaa !41
  %8 = load i32, ptr %4, align 4, !tbaa !8
  %9 = sext i32 %8 to i64
  %10 = getelementptr inbounds i32, ptr %7, i64 %9
  %11 = load i32, ptr %10, align 4, !tbaa !8
  ret i32 %11
}

; Function Attrs: inlinehint nounwind uwtable
define internal i32 @Vec_IntSize(ptr noundef %0) #2 {
  %2 = alloca ptr, align 8
  store ptr %0, ptr %2, align 8, !tbaa !36
  %3 = load ptr, ptr %2, align 8, !tbaa !36
  %4 = getelementptr inbounds nuw %struct.Vec_Int_t_, ptr %3, i32 0, i32 1
  %5 = load i32, ptr %4, align 4, !tbaa !39
  ret i32 %5
}

; Function Attrs: inlinehint nounwind uwtable
define internal void @Vec_IntFree(ptr noundef %0) #2 {
  %2 = alloca ptr, align 8
  store ptr %0, ptr %2, align 8, !tbaa !36
  %3 = load ptr, ptr %2, align 8, !tbaa !36
  %4 = getelementptr inbounds nuw %struct.Vec_Int_t_, ptr %3, i32 0, i32 2
  %5 = load ptr, ptr %4, align 8, !tbaa !41
  %6 = icmp ne ptr %5, null
  br i1 %6, label %7, label %13

7:                                                ; preds = %1
  %8 = load ptr, ptr %2, align 8, !tbaa !36
  %9 = getelementptr inbounds nuw %struct.Vec_Int_t_, ptr %8, i32 0, i32 2
  %10 = load ptr, ptr %9, align 8, !tbaa !41
  call void @free(ptr noundef %10) #11
  %11 = load ptr, ptr %2, align 8, !tbaa !36
  %12 = getelementptr inbounds nuw %struct.Vec_Int_t_, ptr %11, i32 0, i32 2
  store ptr null, ptr %12, align 8, !tbaa !41
  br label %14

13:                                               ; preds = %1
  br label %14

14:                                               ; preds = %13, %7
  %15 = load ptr, ptr %2, align 8, !tbaa !36
  %16 = icmp ne ptr %15, null
  br i1 %16, label %17, label %19

17:                                               ; preds = %14
  %18 = load ptr, ptr %2, align 8, !tbaa !36
  call void @free(ptr noundef %18) #11
  store ptr null, ptr %2, align 8, !tbaa !36
  br label %20

19:                                               ; preds = %14
  br label %20

20:                                               ; preds = %19, %17
  ret void
}

; Function Attrs: nounwind uwtable
define void @Dau_DecPrintSets(ptr noundef %0, i32 noundef %1) #0 {
  %3 = alloca ptr, align 8
  %4 = alloca i32, align 4
  %5 = alloca i32, align 4
  %6 = alloca i32, align 4
  store ptr %0, ptr %3, align 8, !tbaa !36
  store i32 %1, ptr %4, align 4, !tbaa !8
  call void @llvm.lifetime.start.p0(i64 4, ptr %5) #11
  call void @llvm.lifetime.start.p0(i64 4, ptr %6) #11
  %7 = load i32, ptr %4, align 4, !tbaa !8
  %8 = load ptr, ptr %3, align 8, !tbaa !36
  %9 = call i32 @Vec_IntSize(ptr noundef %8)
  %10 = call i32 (ptr, ...) @printf(ptr noundef @.str.6, i32 noundef %7, i32 noundef %9)
  store i32 0, ptr %5, align 4, !tbaa !8
  br label %11

11:                                               ; preds = %25, %2
  %12 = load i32, ptr %5, align 4, !tbaa !8
  %13 = load ptr, ptr %3, align 8, !tbaa !36
  %14 = call i32 @Vec_IntSize(ptr noundef %13)
  %15 = icmp slt i32 %12, %14
  br i1 %15, label %16, label %20

16:                                               ; preds = %11
  %17 = load ptr, ptr %3, align 8, !tbaa !36
  %18 = load i32, ptr %5, align 4, !tbaa !8
  %19 = call i32 @Vec_IntEntry(ptr noundef %17, i32 noundef %18)
  store i32 %19, ptr %6, align 4, !tbaa !8
  br label %20

20:                                               ; preds = %16, %11
  %21 = phi i1 [ false, %11 ], [ true, %16 ]
  br i1 %21, label %22, label %28

22:                                               ; preds = %20
  %23 = load i32, ptr %6, align 4, !tbaa !8
  %24 = load i32, ptr %4, align 4, !tbaa !8
  call void @Dau_DecPrintSet(i32 noundef %23, i32 noundef %24, i32 noundef 1)
  br label %25

25:                                               ; preds = %22
  %26 = load i32, ptr %5, align 4, !tbaa !8
  %27 = add nsw i32 %26, 1
  store i32 %27, ptr %5, align 4, !tbaa !8
  br label %11, !llvm.loop !38

28:                                               ; preds = %20
  %29 = call i32 (ptr, ...) @printf(ptr noundef @.str.5)
  call void @llvm.lifetime.end.p0(i64 4, ptr %6) #11
  call void @llvm.lifetime.end.p0(i64 4, ptr %5) #11
  ret void
}

; Function Attrs: nounwind uwtable
define ptr @Dau_DecFindSets(ptr noundef %0, i32 noundef %1) #0 {
  %3 = alloca ptr, align 8
  %4 = alloca i32, align 4
  %5 = alloca ptr, align 8
  %6 = alloca i32, align 4
  %7 = alloca [16 x ptr], align 16
  store ptr %0, ptr %3, align 8, !tbaa !3
  store i32 %1, ptr %4, align 4, !tbaa !8
  call void @llvm.lifetime.start.p0(i64 8, ptr %5) #11
  call void @llvm.lifetime.start.p0(i64 4, ptr %6) #11
  call void @llvm.lifetime.start.p0(i64 128, ptr %7) #11
  call void @llvm.memset.p0.i64(ptr align 16 %7, i8 0, i64 128, i1 false)
  store i32 2, ptr %6, align 4, !tbaa !8
  br label %8

8:                                                ; preds = %18, %2
  %9 = load i32, ptr %6, align 4, !tbaa !8
  %10 = load i32, ptr %4, align 4, !tbaa !8
  %11 = icmp slt i32 %9, %10
  br i1 %11, label %12, label %21

12:                                               ; preds = %8
  %13 = load i32, ptr %6, align 4, !tbaa !8
  %14 = call ptr @Extra_GreyCodeSchedule(i32 noundef %13)
  %15 = load i32, ptr %6, align 4, !tbaa !8
  %16 = sext i32 %15 to i64
  %17 = getelementptr inbounds [16 x ptr], ptr %7, i64 0, i64 %16
  store ptr %14, ptr %17, align 8, !tbaa !10
  br label %18

18:                                               ; preds = %12
  %19 = load i32, ptr %6, align 4, !tbaa !8
  %20 = add nsw i32 %19, 1
  store i32 %20, ptr %6, align 4, !tbaa !8
  br label %8, !llvm.loop !55

21:                                               ; preds = %8
  %22 = load ptr, ptr %3, align 8, !tbaa !3
  %23 = load i32, ptr %4, align 4, !tbaa !8
  %24 = getelementptr inbounds [16 x ptr], ptr %7, i64 0, i64 0
  %25 = call ptr @Dau_DecFindSets_int(ptr noundef %22, i32 noundef %23, ptr noundef %24)
  store ptr %25, ptr %5, align 8, !tbaa !36
  store i32 2, ptr %6, align 4, !tbaa !8
  br label %26

26:                                               ; preds = %46, %21
  %27 = load i32, ptr %6, align 4, !tbaa !8
  %28 = load i32, ptr %4, align 4, !tbaa !8
  %29 = icmp slt i32 %27, %28
  br i1 %29, label %30, label %49

30:                                               ; preds = %26
  %31 = load i32, ptr %6, align 4, !tbaa !8
  %32 = sext i32 %31 to i64
  %33 = getelementptr inbounds [16 x ptr], ptr %7, i64 0, i64 %32
  %34 = load ptr, ptr %33, align 8, !tbaa !10
  %35 = icmp ne ptr %34, null
  br i1 %35, label %36, label %44

36:                                               ; preds = %30
  %37 = load i32, ptr %6, align 4, !tbaa !8
  %38 = sext i32 %37 to i64
  %39 = getelementptr inbounds [16 x ptr], ptr %7, i64 0, i64 %38
  %40 = load ptr, ptr %39, align 8, !tbaa !10
  call void @free(ptr noundef %40) #11
  %41 = load i32, ptr %6, align 4, !tbaa !8
  %42 = sext i32 %41 to i64
  %43 = getelementptr inbounds [16 x ptr], ptr %7, i64 0, i64 %42
  store ptr null, ptr %43, align 8, !tbaa !10
  br label %45

44:                                               ; preds = %30
  br label %45

45:                                               ; preds = %44, %36
  br label %46

46:                                               ; preds = %45
  %47 = load i32, ptr %6, align 4, !tbaa !8
  %48 = add nsw i32 %47, 1
  store i32 %48, ptr %6, align 4, !tbaa !8
  br label %26, !llvm.loop !56

49:                                               ; preds = %26
  %50 = load ptr, ptr %5, align 8, !tbaa !36
  call void @llvm.lifetime.end.p0(i64 128, ptr %7) #11
  call void @llvm.lifetime.end.p0(i64 4, ptr %6) #11
  call void @llvm.lifetime.end.p0(i64 8, ptr %5) #11
  ret ptr %50
}

; Function Attrs: nounwind uwtable
define void @Dau_DecFindSetsTest2() #0 {
  %1 = alloca ptr, align 8
  %2 = alloca i64, align 8
  %3 = alloca i64, align 8
  %4 = alloca i64, align 8
  %5 = alloca i32, align 4
  call void @llvm.lifetime.start.p0(i64 8, ptr %1) #11
  call void @llvm.lifetime.start.p0(i64 8, ptr %2) #11
  %6 = load i64, ptr getelementptr inbounds ([6 x i64], ptr @s_Truths6, i64 0, i64 1), align 8, !tbaa !12
  %7 = xor i64 %6, -1
  %8 = load i64, ptr getelementptr inbounds ([6 x i64], ptr @s_Truths6, i64 0, i64 2), align 16, !tbaa !12
  %9 = and i64 %7, %8
  %10 = load i64, ptr getelementptr inbounds ([6 x i64], ptr @s_Truths6, i64 0, i64 1), align 8, !tbaa !12
  %11 = load i64, ptr getelementptr inbounds ([6 x i64], ptr @s_Truths6, i64 0, i64 3), align 8, !tbaa !12
  %12 = and i64 %10, %11
  %13 = or i64 %9, %12
  store i64 %13, ptr %2, align 8, !tbaa !12
  call void @llvm.lifetime.start.p0(i64 8, ptr %3) #11
  %14 = load i64, ptr getelementptr inbounds ([6 x i64], ptr @s_Truths6, i64 0, i64 1), align 8, !tbaa !12
  %15 = xor i64 %14, -1
  %16 = load i64, ptr getelementptr inbounds ([6 x i64], ptr @s_Truths6, i64 0, i64 4), align 16, !tbaa !12
  %17 = and i64 %15, %16
  %18 = load i64, ptr getelementptr inbounds ([6 x i64], ptr @s_Truths6, i64 0, i64 1), align 8, !tbaa !12
  %19 = load i64, ptr getelementptr inbounds ([6 x i64], ptr @s_Truths6, i64 0, i64 5), align 8, !tbaa !12
  %20 = and i64 %18, %19
  %21 = or i64 %17, %20
  store i64 %21, ptr %3, align 8, !tbaa !12
  call void @llvm.lifetime.start.p0(i64 8, ptr %4) #11
  %22 = load i64, ptr @s_Truths6, align 16, !tbaa !12
  %23 = xor i64 %22, -1
  %24 = load i64, ptr %2, align 8, !tbaa !12
  %25 = and i64 %23, %24
  %26 = load i64, ptr @s_Truths6, align 16, !tbaa !12
  %27 = load i64, ptr %3, align 8, !tbaa !12
  %28 = and i64 %26, %27
  %29 = or i64 %25, %28
  store i64 %29, ptr %4, align 8, !tbaa !12
  call void @llvm.lifetime.start.p0(i64 4, ptr %5) #11
  store i32 5, ptr %5, align 4, !tbaa !8
  %30 = load i32, ptr %5, align 4, !tbaa !8
  %31 = call ptr @Dau_DecFindSets(ptr noundef %4, i32 noundef %30)
  store ptr %31, ptr %1, align 8, !tbaa !36
  %32 = load ptr, ptr %1, align 8, !tbaa !36
  %33 = load i32, ptr %5, align 4, !tbaa !8
  call void @Dau_DecPrintSets(ptr noundef %32, i32 noundef %33)
  %34 = load ptr, ptr %1, align 8, !tbaa !36
  call void @Vec_IntFree(ptr noundef %34)
  call void @llvm.lifetime.end.p0(i64 4, ptr %5) #11
  call void @llvm.lifetime.end.p0(i64 8, ptr %4) #11
  call void @llvm.lifetime.end.p0(i64 8, ptr %3) #11
  call void @llvm.lifetime.end.p0(i64 8, ptr %2) #11
  call void @llvm.lifetime.end.p0(i64 8, ptr %1) #11
  ret void
}