; Function Attrs: nounwind uwtable
define void @Dau_DecFindSetsTest2() local_unnamed_addr #10 {
  %1 = alloca [16 x ptr], align 16
  %2 = alloca i64, align 8
  call void @llvm.lifetime.start.p0(i64 8, ptr nonnull %2) #20
  store i64 -91518295031524336, ptr %2, align 8, !tbaa !9
  call void @llvm.lifetime.start.p0(i64 128, ptr nonnull %1) #20
  call void @llvm.memset.p0.i64(ptr noundef nonnull align 16 dereferenceable(128) %1, i8 0, i64 128, i1 false)
  br label %.lr.ph.i

.lr.ph.i:                                         ; preds = %.lr.ph.i, %0
  %indvars.iv.i = phi i64 [ 2, %0 ], [ %indvars.iv.next.i, %.lr.ph.i ]
  %3 = trunc nuw nsw i64 %indvars.iv.i to i32
  %4 = tail call ptr @Extra_GreyCodeSchedule(i32 noundef %3) #20
  %5 = getelementptr inbounds nuw [16 x ptr], ptr %1, i64 0, i64 %indvars.iv.i
  store ptr %4, ptr %5, align 8, !tbaa !46
  %indvars.iv.next.i = add nuw nsw i64 %indvars.iv.i, 1
  %exitcond.not.i = icmp eq i64 %indvars.iv.next.i, 5
  br i1 %exitcond.not.i, label %._crit_edge.i, label %.lr.ph.i, !llvm.loop !54

._crit_edge.i:                                    ; preds = %.lr.ph.i
  %6 = call ptr @Dau_DecFindSets_int(ptr noundef nonnull readonly %2, i32 noundef 5, ptr noundef nonnull %1)
  br label %.lr.ph18.i

.lr.ph18.i:                                       ; preds = %10, %._crit_edge.i
  %indvars.iv21.i = phi i64 [ 2, %._crit_edge.i ], [ %indvars.iv.next22.i, %10 ]
  %7 = getelementptr inbounds nuw [16 x ptr], ptr %1, i64 0, i64 %indvars.iv21.i
  %8 = load ptr, ptr %7, align 8, !tbaa !46
  %.not.i = icmp eq ptr %8, null
  br i1 %.not.i, label %10, label %9

9:                                                ; preds = %.lr.ph18.i
  tail call void @free(ptr noundef nonnull %8) #20
  store ptr null, ptr %7, align 8, !tbaa !46
  br label %10

10:                                               ; preds = %9, %.lr.ph18.i
  %indvars.iv.next22.i = add nuw nsw i64 %indvars.iv21.i, 1
  %exitcond25.not.i = icmp eq i64 %indvars.iv.next22.i, 5
  br i1 %exitcond25.not.i, label %Dau_DecFindSets.exit, label %.lr.ph18.i, !llvm.loop !55

Dau_DecFindSets.exit:                             ; preds = %10
  call void @llvm.lifetime.end.p0(i64 128, ptr nonnull %1) #20
  %11 = getelementptr i8, ptr %6, i64 4
  %.val.i = load i32, ptr %11, align 4, !tbaa !33
  %12 = tail call i32 (ptr, ...) @printf(ptr noundef nonnull dereferenceable(1) @.str.6, i32 noundef 5, i32 noundef %.val.i)
  %13 = icmp sgt i32 %.val.i, 0
  br i1 %13, label %.lr.ph.i5, label %Dau_DecPrintSets.exit

.lr.ph.i5:                                        ; preds = %Dau_DecFindSets.exit
  %14 = getelementptr i8, ptr %6, i64 8
  %.val9.i = load ptr, ptr %14, align 8, !tbaa !36
  %15 = zext nneg i32 %.val.i to i64
  br label %16

16:                                               ; preds = %16, %.lr.ph.i5
  %indvars.iv.i6 = phi i64 [ 0, %.lr.ph.i5 ], [ %indvars.iv.next.i7, %16 ]
  %17 = getelementptr inbounds nuw i32, ptr %.val9.i, i64 %indvars.iv.i6
  %18 = load i32, ptr %17, align 4, !tbaa !3
  tail call void @Dau_DecPrintSet(i32 noundef %18, i32 noundef 5, i32 noundef 1)
  %indvars.iv.next.i7 = add nuw nsw i64 %indvars.iv.i6, 1
  %exitcond.not = icmp eq i64 %indvars.iv.next.i7, %15
  br i1 %exitcond.not, label %Dau_DecPrintSets.exit, label %16, !llvm.loop !37

Dau_DecPrintSets.exit:                            ; preds = %16, %Dau_DecFindSets.exit
  %putchar.i = tail call i32 @putchar(i32 10)
  %19 = getelementptr inbounds nuw i8, ptr %6, i64 8
  %20 = load ptr, ptr %19, align 8, !tbaa !36
  %.not.i8 = icmp eq ptr %20, null
  br i1 %.not.i8, label %Vec_IntFree.exit, label %21

21:                                               ; preds = %Dau_DecPrintSets.exit
  tail call void @free(ptr noundef nonnull %20) #20
  br label %Vec_IntFree.exit

Vec_IntFree.exit:                                 ; preds = %Dau_DecPrintSets.exit, %21
  tail call void @free(ptr noundef nonnull %6) #20
  call void @llvm.lifetime.end.p0(i64 8, ptr nonnull %2) #20
  ret void
}